

Microchip MPLAB XC8 Assembler V2.31 build 20201012212115 
                                                                                               Tue Apr 11 09:29:27 2023

Microchip MPLAB XC8 C Compiler v2.31 (Free license) build 20201012212115 Og1 
     1                           	processor	12F1572
     2                           	pagewidth 120
     3                           	opt	flic
     4                           	psect	idataBANK0,global,class=CODE,delta=2,noexec
     5                           	psect	idataBANK1,global,class=CODE,delta=2,noexec
     6                           	psect	cinit,global,class=CODE,merge=1,delta=2
     7                           	psect	bssCOMMON,global,class=COMMON,space=1,delta=1,noexec
     8                           	psect	dataBANK0,global,class=BANK0,space=1,delta=1,noexec
     9                           	psect	dataBANK1,global,class=BANK1,space=1,delta=1,noexec
    10                           	psect	inittext,global,class=CODE,delta=2
    11                           	psect	cstackCOMMON,global,class=COMMON,space=1,delta=1,noexec
    12                           	psect	maintext,global,class=CODE,merge=1,split=1,delta=2
    13                           	psect	text1,local,class=CODE,merge=1,delta=2
    14                           	psect	text2,local,class=CODE,merge=1,delta=2
    15                           	psect	text3,local,class=CODE,merge=1,delta=2
    16                           	psect	text4,local,class=CODE,merge=1,delta=2
    17                           	psect	intentry,global,class=CODE,delta=2
    18                           	psect	config,global,abs,ovrld,class=CONFIG,space=4,delta=2,noexec
    19                           	dabs	1,0x7E,2
    20  0000                     
    21                           ; Version 2.20
    22                           ; Generated 12/02/2020 GMT
    23                           ; 
    24                           ; Copyright © 2020, Microchip Technology Inc. and its subsidiaries ("Microchip")
    25                           ; All rights reserved.
    26                           ; 
    27                           ; This software is developed by Microchip Technology Inc. and its subsidiaries ("Microch
      +                          ip").
    28                           ; 
    29                           ; Redistribution and use in source and binary forms, with or without modification, are
    30                           ; permitted provided that the following conditions are met:
    31                           ; 
    32                           ;     1. Redistributions of source code must retain the above copyright notice, this lis
      +                          t of
    33                           ;        conditions and the following disclaimer.
    34                           ; 
    35                           ;     2. Redistributions in binary form must reproduce the above copyright notice, this 
      +                          list
    36                           ;        of conditions and the following disclaimer in the documentation and/or other
    37                           ;        materials provided with the distribution.
    38                           ; 
    39                           ;     3. Microchip's name may not be used to endorse or promote products derived from th
      +                          is
    40                           ;        software without specific prior written permission.
    41                           ; 
    42                           ; THIS SOFTWARE IS PROVIDED BY MICROCHIP "AS IS" AND ANY EXPRESS OR IMPLIED WARRANTIES,
    43                           ; INCLUDING, BUT NOT LIMITED TO, THE IMPLIED WARRANTIES OF MERCHANTABILITY AND FITNESS F
      +                          OR
    44                           ; PURPOSE ARE DISCLAIMED.  IN NO EVENT SHALL MICROCHIP BE LIABLE FOR ANY DIRECT, INDIREC
      +                          T,
    45                           ; INCIDENTAL, SPECIAL, EXEMPLARY, OR CONSEQUENTIAL DAMAGES (INCLUDING BUT NOT LIMITED TO
    46                           ; PROCUREMENT OF SUBSTITUTE GOODS OR SERVICES; LOSS OF USE, DATA OR PROFITS; OR BUSINESS
    47                           ; INTERRUPTION) HOWSOEVER CAUSED AND ON ANY THEORY OF LIABILITY, WHETHER IN CONTRACT, ST
      +                          RICT
    48                           ; LIABILITY, OR TORT (INCLUDING NEGLIGENCE OR OTHERWISE) ARISING IN ANY WAY OUT OF THE U
      +                          SE OF
    49                           ; THIS SOFTWARE, EVEN IF ADVISED OF THE POSSIBILITY OF SUCH DAMAGE.
    50                           ; 
    51                           ; 
    52                           ; Code-generator required, PIC12F1572 Definitions
    53                           ; 
    54                           ; SFR Addresses
    55  0000                     	;# 
    56  0001                     	;# 
    57  0002                     	;# 
    58  0003                     	;# 
    59  0004                     	;# 
    60  0005                     	;# 
    61  0006                     	;# 
    62  0007                     	;# 
    63  0008                     	;# 
    64  0009                     	;# 
    65  000A                     	;# 
    66  000B                     	;# 
    67  000C                     	;# 
    68  0011                     	;# 
    69  0012                     	;# 
    70  0013                     	;# 
    71  0015                     	;# 
    72  0016                     	;# 
    73  0016                     	;# 
    74  0017                     	;# 
    75  0018                     	;# 
    76  0019                     	;# 
    77  001A                     	;# 
    78  001B                     	;# 
    79  001C                     	;# 
    80  008C                     	;# 
    81  0091                     	;# 
    82  0092                     	;# 
    83  0093                     	;# 
    84  0095                     	;# 
    85  0096                     	;# 
    86  0097                     	;# 
    87  0098                     	;# 
    88  0099                     	;# 
    89  009A                     	;# 
    90  009B                     	;# 
    91  009B                     	;# 
    92  009C                     	;# 
    93  009D                     	;# 
    94  009E                     	;# 
    95  009F                     	;# 
    96  010C                     	;# 
    97  0111                     	;# 
    98  0112                     	;# 
    99  0115                     	;# 
   100  0116                     	;# 
   101  0117                     	;# 
   102  0118                     	;# 
   103  0119                     	;# 
   104  011D                     	;# 
   105  011D                     	;# 
   106  018C                     	;# 
   107  0191                     	;# 
   108  0191                     	;# 
   109  0192                     	;# 
   110  0193                     	;# 
   111  0193                     	;# 
   112  0194                     	;# 
   113  0195                     	;# 
   114  0196                     	;# 
   115  0197                     	;# 
   116  0199                     	;# 
   117  019A                     	;# 
   118  019B                     	;# 
   119  019B                     	;# 
   120  019C                     	;# 
   121  019D                     	;# 
   122  019E                     	;# 
   123  019F                     	;# 
   124  020C                     	;# 
   125  028C                     	;# 
   126  030C                     	;# 
   127  038C                     	;# 
   128  0391                     	;# 
   129  0392                     	;# 
   130  0393                     	;# 
   131  0691                     	;# 
   132  0692                     	;# 
   133  0693                     	;# 
   134  0694                     	;# 
   135  0695                     	;# 
   136  0D8E                     	;# 
   137  0D8F                     	;# 
   138  0D90                     	;# 
   139  0D91                     	;# 
   140  0D91                     	;# 
   141  0D92                     	;# 
   142  0D93                     	;# 
   143  0D93                     	;# 
   144  0D94                     	;# 
   145  0D95                     	;# 
   146  0D95                     	;# 
   147  0D96                     	;# 
   148  0D97                     	;# 
   149  0D97                     	;# 
   150  0D98                     	;# 
   151  0D99                     	;# 
   152  0D99                     	;# 
   153  0D9A                     	;# 
   154  0D9B                     	;# 
   155  0D9C                     	;# 
   156  0D9C                     	;# 
   157  0D9D                     	;# 
   158  0D9D                     	;# 
   159  0D9E                     	;# 
   160  0D9F                     	;# 
   161  0DA0                     	;# 
   162  0DA1                     	;# 
   163  0DA1                     	;# 
   164  0DA2                     	;# 
   165  0DA3                     	;# 
   166  0DA3                     	;# 
   167  0DA4                     	;# 
   168  0DA5                     	;# 
   169  0DA5                     	;# 
   170  0DA6                     	;# 
   171  0DA7                     	;# 
   172  0DA7                     	;# 
   173  0DA8                     	;# 
   174  0DA9                     	;# 
   175  0DA9                     	;# 
   176  0DAA                     	;# 
   177  0DAB                     	;# 
   178  0DAC                     	;# 
   179  0DAC                     	;# 
   180  0DAD                     	;# 
   181  0DAD                     	;# 
   182  0DAE                     	;# 
   183  0DAF                     	;# 
   184  0DB0                     	;# 
   185  0DB1                     	;# 
   186  0DB1                     	;# 
   187  0DB2                     	;# 
   188  0DB3                     	;# 
   189  0DB3                     	;# 
   190  0DB4                     	;# 
   191  0DB5                     	;# 
   192  0DB5                     	;# 
   193  0DB6                     	;# 
   194  0DB7                     	;# 
   195  0DB7                     	;# 
   196  0DB8                     	;# 
   197  0DB9                     	;# 
   198  0DB9                     	;# 
   199  0DBA                     	;# 
   200  0DBB                     	;# 
   201  0DBC                     	;# 
   202  0DBC                     	;# 
   203  0DBD                     	;# 
   204  0DBD                     	;# 
   205  0DBE                     	;# 
   206  0DBF                     	;# 
   207  0DC0                     	;# 
   208  0FE4                     	;# 
   209  0FE5                     	;# 
   210  0FE6                     	;# 
   211  0FE7                     	;# 
   212  0FE8                     	;# 
   213  0FE8                     	;# 
   214  0FE9                     	;# 
   215  0FEA                     	;# 
   216  0FEA                     	;# 
   217  0FEB                     	;# 
   218  0FED                     	;# 
   219  0FEE                     	;# 
   220  0FEE                     	;# 
   221  0FEF                     	;# 
   222                           
   223                           	psect	idataBANK0
   224  01EA                     __pidataBANK0:
   225                           
   226                           ;initializer for _texte5
   227  01EA  3442               	retlw	66
   228  01EB  3461               	retlw	97
   229  01EC  3474               	retlw	116
   230  01ED  3474               	retlw	116
   231  01EE  3465               	retlw	101
   232  01EF  3472               	retlw	114
   233  01F0  3469               	retlw	105
   234  01F1  3465               	retlw	101
   235  01F2  3420               	retlw	32
   236  01F3  3432               	retlw	50
   237  01F4  3430               	retlw	48
   238  01F5  3425               	retlw	37
   239  01F6  3420               	retlw	32
   240  01F7  340D               	retlw	13
   241  01F8  3425               	retlw	37
   242  01F9  3400               	retlw	0
   243                           
   244                           ;initializer for _texte1
   245  01FA  3442               	retlw	66
   246  01FB  3461               	retlw	97
   247  01FC  3474               	retlw	116
   248  01FD  3474               	retlw	116
   249  01FE  3465               	retlw	101
   250  01FF  3472               	retlw	114
   251  0200  3469               	retlw	105
   252  0201  3465               	retlw	101
   253  0202  3420               	retlw	32
   254  0203  3431               	retlw	49
   255  0204  3430               	retlw	48
   256  0205  3430               	retlw	48
   257  0206  3425               	retlw	37
   258  0207  3420               	retlw	32
   259  0208  340D               	retlw	13
   260  0209  3400               	retlw	0
   261                           
   262                           ;initializer for _texte4
   263  020A  3442               	retlw	66
   264  020B  3461               	retlw	97
   265  020C  3474               	retlw	116
   266  020D  3474               	retlw	116
   267  020E  3465               	retlw	101
   268  020F  3472               	retlw	114
   269  0210  3469               	retlw	105
   270  0211  3465               	retlw	101
   271  0212  3420               	retlw	32
   272  0213  3434               	retlw	52
   273  0214  3430               	retlw	48
   274  0215  3425               	retlw	37
   275  0216  3420               	retlw	32
   276  0217  340D               	retlw	13
   277  0218  3400               	retlw	0
   278                           
   279                           ;initializer for _texte3
   280  0219  3442               	retlw	66
   281  021A  3461               	retlw	97
   282  021B  3474               	retlw	116
   283  021C  3474               	retlw	116
   284  021D  3465               	retlw	101
   285  021E  3472               	retlw	114
   286  021F  3469               	retlw	105
   287  0220  3465               	retlw	101
   288  0221  3420               	retlw	32
   289  0222  3436               	retlw	54
   290  0223  3430               	retlw	48
   291  0224  3425               	retlw	37
   292  0225  3420               	retlw	32
   293  0226  340D               	retlw	13
   294  0227  3400               	retlw	0
   295                           
   296                           ;initializer for _texte2
   297  0228  3442               	retlw	66
   298  0229  3461               	retlw	97
   299  022A  3474               	retlw	116
   300  022B  3474               	retlw	116
   301  022C  3465               	retlw	101
   302  022D  3472               	retlw	114
   303  022E  3469               	retlw	105
   304  022F  3465               	retlw	101
   305  0230  3420               	retlw	32
   306  0231  3438               	retlw	56
   307  0232  3430               	retlw	48
   308  0233  3425               	retlw	37
   309  0234  3420               	retlw	32
   310  0235  340D               	retlw	13
   311  0236  3400               	retlw	0
   312                           
   313                           	psect	idataBANK1
   314  0237                     __pidataBANK1:
   315                           
   316                           ;initializer for _texte6
   317  0237  344D               	retlw	77
   318  0238  3461               	retlw	97
   319  0239  3469               	retlw	105
   320  023A  346E               	retlw	110
   321  023B  3474               	retlw	116
   322  023C  3465               	retlw	101
   323  023D  346E               	retlw	110
   324  023E  3461               	retlw	97
   325  023F  346E               	retlw	110
   326  0240  3463               	retlw	99
   327  0241  3465               	retlw	101
   328  0242  3420               	retlw	32
   329  0243  3472               	retlw	114
   330  0244  3465               	retlw	101
   331  0245  3471               	retlw	113
   332  0246  3475               	retlw	117
   333  0247  3469               	retlw	105
   334  0248  3473               	retlw	115
   335  0249  3465               	retlw	101
   336  024A  3420               	retlw	32
   337  024B  340D               	retlw	13
   338  024C  3425               	retlw	37
   339  024D  3400               	retlw	0
   340  000C                     _PORTAbits	set	12
   341  000B                     _INTCONbits	set	11
   342  0016                     _TMR1L	set	22
   343  0017                     _TMR1H	set	23
   344  0018                     _T1CONbits	set	24
   345  000C                     _PORTA	set	12
   346  0011                     _PIR1bits	set	17
   347  009B                     _ADRESL	set	155
   348  009C                     _ADRESH	set	156
   349  009D                     _ADCON0bits	set	157
   350  0091                     _PIE1bits	set	145
   351  008C                     _TRISA	set	140
   352  0099                     _OSCCON	set	153
   353  008C                     _TRISAbits	set	140
   354  0095                     _OPTION_REG	set	149
   355  009F                     _ADCON2	set	159
   356  009E                     _ADCON1	set	158
   357  009D                     _ADCON0	set	157
   358  04E9                     _ADGO	set	1257
   359  019B                     _SPBRG	set	411
   360  019A                     _TXREG	set	410
   361  019D                     _RCSTA	set	413
   362  019E                     _TXSTA	set	414
   363  018C                     _ANSELA	set	396
   364                           
   365                           	psect	cinit
   366  0017                     start_initialization:	
   367                           ; #config settings
   368                           
   369  0017                     __initialization:
   370                           
   371                           ; Initialize objects allocated to BANK0
   372  0017  30EA               	movlw	low __pidataBANK0
   373  0018  0084               	movwf	4
   374  0019  3081               	movlw	(high __pidataBANK0)| (0+128)
   375  001A  0085               	movwf	5
   376  001B  3020               	movlw	low __pdataBANK0
   377  001C  0086               	movwf	6
   378  001D  3000               	movlw	high __pdataBANK0
   379  001E  0087               	movwf	7
   380  001F  304D               	movlw	77
   381  0020  3182  2280  3180   	fcall	init_ram
   382                           
   383                           ; Initialize objects allocated to BANK1
   384  0023  3037               	movlw	low __pidataBANK1
   385  0024  0084               	movwf	4
   386  0025  3082               	movlw	(high __pidataBANK1)| (0+128)
   387  0026  0085               	movwf	5
   388  0027  30A0               	movlw	low __pdataBANK1
   389  0028  0086               	movwf	6
   390  0029  3000               	movlw	high __pdataBANK1
   391  002A  0087               	movwf	7
   392  002B  3017               	movlw	23
   393  002C  3182  2280  3180   	fcall	init_ram
   394                           
   395                           ; Clear objects allocated to COMMON
   396  002F  01F0               	clrf	__pbssCOMMON& (0+127)
   397  0030  01F1               	clrf	(__pbssCOMMON+1)& (0+127)
   398  0031  01F2               	clrf	(__pbssCOMMON+2)& (0+127)
   399  0032  01F3               	clrf	(__pbssCOMMON+3)& (0+127)
   400  0033  01F4               	clrf	(__pbssCOMMON+4)& (0+127)
   401  0034  01F5               	clrf	(__pbssCOMMON+5)& (0+127)
   402  0035                     end_of_initialization:	
   403                           ;End of C runtime variable initialization code
   404                           
   405  0035                     __end_of__initialization:
   406  0035  107E               	bcf	int$flags,0	;clear compiler interrupt flag (level 1)
   407  0036  0020               	movlb	0
   408  0037  2838               	ljmp	_main	;jump to C main() function
   409                           
   410                           	psect	bssCOMMON
   411  0070                     __pbssCOMMON:
   412  0070                     _timer0_interrupts:
   413  0070                     	ds	2
   414  0072                     _i:
   415  0072                     	ds	2
   416  0074                     _res:
   417  0074                     	ds	2
   418                           
   419                           	psect	dataBANK0
   420  0020                     __pdataBANK0:
   421  0020                     _texte5:
   422  0020                     	ds	16
   423  0030                     _texte1:
   424  0030                     	ds	16
   425  0040                     _texte4:
   426  0040                     	ds	15
   427  004F                     _texte3:
   428  004F                     	ds	15
   429  005E                     _texte2:
   430  005E                     	ds	15
   431                           
   432                           	psect	dataBANK1
   433  00A0                     __pdataBANK1:
   434  00A0                     _texte6:
   435  00A0                     	ds	23
   436                           
   437                           	psect	inittext
   438  0280                     init_ram:
   439  0280  00FE               	movwf	btemp
   440  0281                     initloop:
   441  0281  0012               	moviw fsr0++
   442  0282  001E               	movwi fsr1++
   443  0283  0BFE               	decfsz	btemp,f
   444  0284  2A81               	goto	initloop
   445  0285  3400               	retlw	0
   446                           
   447                           	psect	cstackCOMMON
   448  0076                     __pcstackCOMMON:
   449  0076                     ?_Init_can:
   450  0076                     ??_Init_can:	
   451                           ; 1 bytes @ 0x0
   452                           
   453  0076                     ?_init_uart:	
   454                           ; 1 bytes @ 0x0
   455                           
   456  0076                     ??_init_uart:	
   457                           ; 1 bytes @ 0x0
   458                           
   459  0076                     ?_code:	
   460                           ; 1 bytes @ 0x0
   461                           
   462  0076                     ??_code:	
   463                           ; 1 bytes @ 0x0
   464                           
   465  0076                     ?_Temp:	
   466                           ; 1 bytes @ 0x0
   467                           
   468  0076                     ??_Temp:	
   469                           ; 1 bytes @ 0x0
   470                           
   471  0076                     ?_main:	
   472                           ; 1 bytes @ 0x0
   473                           
   474  0076                     ?_isr:	
   475                           ; 1 bytes @ 0x0
   476                           
   477  0076                     ??_isr:	
   478                           ; 1 bytes @ 0x0
   479                           
   480  0076                     code@c:	
   481                           ; 1 bytes @ 0x0
   482                           
   483  0076                     Temp@u:	
   484                           ; 1 bytes @ 0x0
   485                           
   486                           
   487                           ; 2 bytes @ 0x0
   488  0076                     	ds	2
   489  0078                     ??_main:
   490                           
   491                           ; 1 bytes @ 0x2
   492  0078                     	ds	3
   493                           
   494                           	psect	maintext
   495  0038                     __pmaintext:	
   496 ;;
   497 ;;Main: autosize = 0, tempsize = 3, incstack = 0, save=0
   498 ;;
   499 ;; *************** function _main *****************
   500 ;; Defined at:
   501 ;;		line 42 in file "PROJETBTS.c"
   502 ;; Parameters:    Size  Location     Type
   503 ;;		None
   504 ;; Auto vars:     Size  Location     Type
   505 ;;		None
   506 ;; Return value:  Size  Location     Type
   507 ;;                  1    wreg      void 
   508 ;; Registers used:
   509 ;;		wreg, fsr1l, fsr1h, status,2, status,0, pclath, cstack
   510 ;; Tracked objects:
   511 ;;		On entry : B1F/0
   512 ;;		On exit  : 0/0
   513 ;;		Unchanged: 0/0
   514 ;; Data sizes:     COMMON   BANK0   BANK1   BANK2
   515 ;;      Params:         0       0       0       0
   516 ;;      Locals:         0       0       0       0
   517 ;;      Temps:          3       0       0       0
   518 ;;      Totals:         3       0       0       0
   519 ;;Total ram usage:        3 bytes
   520 ;; Hardware stack levels required when called:    2
   521 ;; This function calls:
   522 ;;		_Init_can
   523 ;;		_Temp
   524 ;;		_code
   525 ;;		_init_uart
   526 ;; This function is called by:
   527 ;;		Startup code after reset
   528 ;; This function uses a non-reentrant model
   529 ;;
   530                           
   531                           
   532                           ;psect for function _main
   533  0038                     _main:
   534  0038                     l856:	
   535                           ;incstack = 0
   536                           ; Regs used in _main: [wreg+fsr1l+fsr1h+status,2+status,0+pclath+cstack]
   537                           
   538  0038  305B               	movlw	91
   539  0039  0021               	movlb	1	; select bank1
   540  003A  0099               	movwf	25	;volatile
   541                           
   542                           ;PROJETBTS.c: 44:     TMR1L = 0xDC;
   543  003B  3002               	movlw	2
   544  003C  008C               	movwf	12	;volatile
   545  003D                     l858:
   546                           
   547                           ;PROJETBTS.c: 45:     PIE1bits.TMR1IE = 1;
   548  003D  0020               	movlb	0	; select bank0
   549  003E  018C               	clrf	12	;volatile
   550  003F                     l860:
   551                           
   552                           ;PROJETBTS.c: 46:     INTCONbits.PEIE = 1;
   553  003F  303F               	movlw	-193
   554  0040  0598               	andwf	24,f	;volatile
   555  0041                     l862:
   556                           
   557                           ;PROJETBTS.c: 47:     INTCONbits.GIE = 1;
   558  0041  3030               	movlw	48
   559  0042  0498               	iorwf	24,f	;volatile
   560  0043                     l864:
   561                           
   562                           ;PROJETBTS.c: 48:     T1CONbits.TMR1ON =1;
   563  0043  300B               	movlw	11
   564  0044  0097               	movwf	23	;volatile
   565  0045                     l866:
   566                           
   567                           ;PROJETBTS.c: 49:     while (1)
   568  0045  30DC               	movlw	220
   569  0046  0096               	movwf	22	;volatile
   570  0047                     l868:
   571                           
   572                           ;PROJETBTS.c: 50:     {
   573  0047  0021               	movlb	1	; select bank1
   574  0048  1411               	bsf	17,0	;volatile
   575  0049                     l870:
   576                           
   577                           ;PROJETBTS.c: 51: 
   578  0049  170B               	bsf	11,6	;volatile
   579  004A                     l872:
   580                           
   581                           ;PROJETBTS.c: 52:     Init_can();
   582  004A  178B               	bsf	11,7	;volatile
   583  004B                     l874:
   584                           
   585                           ;PROJETBTS.c: 53:     ADCON0bits.ADGO=1;
   586  004B  0020               	movlb	0	; select bank0
   587  004C  1418               	bsf	24,0	;volatile
   588  004D                     l876:
   589                           
   590                           ;PROJETBTS.c: 55:     res=ADRESH<<8;;PROJETBTS.c: 57:     _delay(1000);
   591  004D  3182  225D  3180   	fcall	_Init_can
   592  0050                     l878:
   593                           
   594                           ;PROJETBTS.c: 58: 
   595  0050  0021               	movlb	1	; select bank1
   596  0051  149D               	bsf	29,1	;volatile
   597  0052                     l92:	
   598                           ;PROJETBTS.c: 59:     init_uart();
   599                           
   600  0052  189D               	btfsc	29,1	;volatile
   601  0053  2855               	goto	u241
   602  0054  2856               	goto	u240
   603  0055                     u241:
   604  0055  2852               	goto	l92
   605  0056                     u240:
   606  0056                     l880:
   607                           
   608                           ;PROJETBTS.c: 60:     if (timer0_interrupts >= 150)
   609  0056  081C               	movf	28,w	;volatile
   610  0057  00F8               	movwf	??_main
   611  0058  01F9               	clrf	??_main+1
   612  0059  0878               	movf	??_main,w
   613  005A  00F9               	movwf	??_main+1
   614  005B  01F8               	clrf	??_main
   615  005C  0878               	movf	??_main,w
   616  005D  00F4               	movwf	_res
   617  005E  0879               	movf	??_main+1,w
   618  005F  00F5               	movwf	_res+1
   619                           
   620                           ;PROJETBTS.c: 61:     {
   621  0060  0874               	movf	_res,w
   622  0061  041B               	iorwf	27,w	;volatile
   623  0062  00F8               	movwf	??_main
   624  0063  0875               	movf	_res+1,w
   625  0064  00F9               	movwf	??_main+1
   626  0065  0878               	movf	??_main,w
   627  0066  00F4               	movwf	_res
   628  0067  0879               	movf	??_main+1,w
   629  0068  00F5               	movwf	_res+1
   630                           
   631                           ;PROJETBTS.c: 62:         timer0_interrupts =0;
   632  0069  30C8               	movlw	200
   633  006A                     u427:
   634  006A  3200               	nop2
   635  006B  0B89               	decfsz	9,f
   636  006C  286A               	goto	u427
   637  006D                     l882:
   638                           
   639                           ;PROJETBTS.c: 64:         {
   640  006D  3182  226A  3180   	fcall	_init_uart
   641  0070                     l884:
   642                           
   643                           ;PROJETBTS.c: 65:             PORTAbits.RA4=1;
   644  0070  3000               	movlw	0
   645  0071  0271               	subwf	_timer0_interrupts+1,w	;volatile
   646  0072  3096               	movlw	150
   647  0073  1903               	skipnz
   648  0074  0270               	subwf	_timer0_interrupts,w	;volatile
   649  0075  1C03               	skipc
   650  0076  2878               	goto	u251
   651  0077  2879               	goto	u250
   652  0078                     u251:
   653  0078  284D               	goto	l876
   654  0079                     u250:
   655  0079                     l886:
   656                           
   657                           ;PROJETBTS.c: 66:             PORTAbits.RA2=0;;PROJETBTS.c: 67:             init_uart();
   658  0079  01F0               	clrf	_timer0_interrupts	;volatile
   659  007A  01F1               	clrf	_timer0_interrupts+1	;volatile
   660  007B                     l888:
   661                           
   662                           ;PROJETBTS.c: 68:             for (i=0; i<=14; i++)
   663  007B  0875               	movf	_res+1,w
   664  007C  3A80               	xorlw	128
   665  007D  00F8               	movwf	??_main
   666  007E  3083               	movlw	131
   667  007F  0278               	subwf	??_main,w
   668  0080  1D03               	skipz
   669  0081  2884               	goto	u265
   670  0082  309A               	movlw	154
   671  0083  0274               	subwf	_res,w
   672  0084                     u265:
   673  0084  1C03               	skipc
   674  0085  2887               	goto	u261
   675  0086  2888               	goto	u260
   676  0087                     u261:
   677  0087  28AF               	goto	l908
   678  0088                     u260:
   679  0088                     l890:
   680                           
   681                           ;PROJETBTS.c: 69:             {;PROJETBTS.c: 70:                 code(texte1[i]);
   682  0088  0020               	movlb	0	; select bank0
   683  0089  160C               	bsf	12,4	;volatile
   684                           
   685                           ;PROJETBTS.c: 71:             }
   686  008A  110C               	bcf	12,2	;volatile
   687  008B                     l892:
   688                           
   689                           ;PROJETBTS.c: 72:             Temp();
   690  008B  3182  226A  3180   	fcall	_init_uart
   691  008E                     l894:
   692                           
   693                           ;PROJETBTS.c: 73:             Temp();
   694  008E  01F2               	clrf	_i
   695  008F  01F3               	clrf	_i+1
   696  0090                     l900:
   697                           
   698                           ;PROJETBTS.c: 74:         };PROJETBTS.c: 75:         if ((res<922)&&(res>=891))
   699  0090  0872               	movf	_i,w
   700  0091  3E30               	addlw	(low (_texte1| 0))& (0+255)
   701  0092  0086               	movwf	6
   702  0093  0187               	clrf	7
   703  0094  0801               	movf	1,w
   704  0095  3182  2276  3180   	fcall	_code
   705  0098                     l902:
   706                           
   707                           ;PROJETBTS.c: 76:         {
   708  0098  3001               	movlw	1
   709  0099  07F2               	addwf	_i,f
   710  009A  3000               	movlw	0
   711  009B  3DF3               	addwfc	_i+1,f
   712  009C                     l904:
   713  009C  0873               	movf	_i+1,w
   714  009D  3A80               	xorlw	128
   715  009E  00F8               	movwf	??_main
   716  009F  3080               	movlw	128
   717  00A0  0278               	subwf	??_main,w
   718  00A1  1D03               	skipz
   719  00A2  28A5               	goto	u275
   720  00A3  300F               	movlw	15
   721  00A4  0272               	subwf	_i,w
   722  00A5                     u275:
   723  00A5  1C03               	skipc
   724  00A6  28A8               	goto	u271
   725  00A7  28A9               	goto	u270
   726  00A8                     u271:
   727  00A8  2890               	goto	l900
   728  00A9                     u270:
   729  00A9                     l906:
   730                           
   731                           ;PROJETBTS.c: 77:             PORTAbits.RA2=0;
   732  00A9  3182  224E  3180   	fcall	_Temp
   733                           
   734                           ;PROJETBTS.c: 78:             PORTAbits.RA4=1;
   735  00AC  3182  224E  3180   	fcall	_Temp
   736  00AF                     l908:
   737                           
   738                           ;PROJETBTS.c: 80:             for (i=0; i<=14; i++)
   739  00AF  0875               	movf	_res+1,w
   740  00B0  3A80               	xorlw	128
   741  00B1  00F8               	movwf	??_main
   742  00B2  3083               	movlw	131
   743  00B3  0278               	subwf	??_main,w
   744  00B4  1D03               	skipz
   745  00B5  28B8               	goto	u285
   746  00B6  309A               	movlw	154
   747  00B7  0274               	subwf	_res,w
   748  00B8                     u285:
   749  00B8  1803               	skipnc
   750  00B9  28BB               	goto	u281
   751  00BA  28BC               	goto	u280
   752  00BB                     u281:
   753  00BB  28F1               	goto	l99
   754  00BC                     u280:
   755  00BC                     l910:
   756  00BC  0875               	movf	_res+1,w
   757  00BD  3A80               	xorlw	128
   758  00BE  00F8               	movwf	??_main
   759  00BF  3083               	movlw	131
   760  00C0  0278               	subwf	??_main,w
   761  00C1  1D03               	skipz
   762  00C2  28C5               	goto	u295
   763  00C3  307B               	movlw	123
   764  00C4  0274               	subwf	_res,w
   765  00C5                     u295:
   766  00C5  1C03               	skipc
   767  00C6  28C8               	goto	u291
   768  00C7  28C9               	goto	u290
   769  00C8                     u291:
   770  00C8  28F1               	goto	l99
   771  00C9                     u290:
   772  00C9                     l912:
   773                           
   774                           ;PROJETBTS.c: 81:             {;PROJETBTS.c: 82:             code(texte2[i]);
   775  00C9  0020               	movlb	0	; select bank0
   776  00CA  110C               	bcf	12,2	;volatile
   777                           
   778                           ;PROJETBTS.c: 83:             }
   779  00CB  160C               	bsf	12,4	;volatile
   780  00CC                     l914:
   781                           
   782                           ;PROJETBTS.c: 84:             _delay(100000);
   783  00CC  3182  226A  3180   	fcall	_init_uart
   784  00CF                     l916:
   785                           
   786                           ;PROJETBTS.c: 85:         }
   787  00CF  01F2               	clrf	_i
   788  00D0  01F3               	clrf	_i+1
   789  00D1                     l922:
   790                           
   791                           ;PROJETBTS.c: 86:         if ((res<891)&&(res>=860));PROJETBTS.c: 87:         {
   792  00D1  0872               	movf	_i,w
   793  00D2  3E5E               	addlw	(low (_texte2| 0))& (0+255)
   794  00D3  0086               	movwf	6
   795  00D4  0187               	clrf	7
   796  00D5  0801               	movf	1,w
   797  00D6  3182  2276  3180   	fcall	_code
   798  00D9                     l924:
   799                           
   800                           ;PROJETBTS.c: 88:             PORTAbits.RA2=0;
   801  00D9  3001               	movlw	1
   802  00DA  07F2               	addwf	_i,f
   803  00DB  3000               	movlw	0
   804  00DC  3DF3               	addwfc	_i+1,f
   805  00DD                     l926:
   806  00DD  0873               	movf	_i+1,w
   807  00DE  3A80               	xorlw	128
   808  00DF  00F8               	movwf	??_main
   809  00E0  3080               	movlw	128
   810  00E1  0278               	subwf	??_main,w
   811  00E2  1D03               	skipz
   812  00E3  28E6               	goto	u305
   813  00E4  300F               	movlw	15
   814  00E5  0272               	subwf	_i,w
   815  00E6                     u305:
   816  00E6  1C03               	skipc
   817  00E7  28E9               	goto	u301
   818  00E8  28EA               	goto	u300
   819  00E9                     u301:
   820  00E9  28D1               	goto	l922
   821  00EA                     u300:
   822  00EA                     l928:
   823                           
   824                           ;PROJETBTS.c: 89:             PORTAbits.RA4=1;
   825  00EA  3082               	movlw	130
   826  00EB  00F8               	movwf	??_main
   827  00EC  30DE               	movlw	222
   828  00ED                     u437:
   829  00ED  0B89               	decfsz	9,f
   830  00EE  28ED               	goto	u437
   831  00EF  0BF8               	decfsz	??_main,f
   832  00F0  28ED               	goto	u437
   833  00F1                     l99:	
   834                           ;PROJETBTS.c: 90:             init_uart();
   835                           
   836                           
   837                           ;PROJETBTS.c: 91:             for (i=0; i<=14; i++)
   838  00F1  0875               	movf	_res+1,w
   839  00F2  3A80               	xorlw	128
   840  00F3  00F8               	movwf	??_main
   841  00F4  3083               	movlw	131
   842  00F5  0278               	subwf	??_main,w
   843  00F6  1D03               	skipz
   844  00F7  28FA               	goto	u315
   845  00F8  307B               	movlw	123
   846  00F9  0274               	subwf	_res,w
   847  00FA                     u315:
   848  00FA  1803               	skipnc
   849  00FB  28FD               	goto	u311
   850  00FC  28FE               	goto	u310
   851  00FD                     u311:
   852  00FD  2932               	goto	l950
   853  00FE                     u310:
   854  00FE                     l930:
   855  00FE  0875               	movf	_res+1,w
   856  00FF  3A80               	xorlw	128
   857  0100  00F8               	movwf	??_main
   858  0101  3083               	movlw	131
   859  0102  0278               	subwf	??_main,w
   860  0103  1D03               	skipz
   861  0104  2907               	goto	u325
   862  0105  305C               	movlw	92
   863  0106  0274               	subwf	_res,w
   864  0107                     u325:
   865  0107  1C03               	skipc
   866  0108  290A               	goto	u321
   867  0109  290B               	goto	u320
   868  010A                     u321:
   869  010A  2932               	goto	l950
   870  010B                     u320:
   871  010B                     l932:
   872                           
   873                           ;PROJETBTS.c: 92:             {;PROJETBTS.c: 93:                 code(texte3[i]);
   874  010B  0020               	movlb	0	; select bank0
   875  010C  110C               	bcf	12,2	;volatile
   876                           
   877                           ;PROJETBTS.c: 94:             }
   878  010D  160C               	bsf	12,4	;volatile
   879  010E                     l934:
   880                           
   881                           ;PROJETBTS.c: 95:             Temp();
   882  010E  3182  226A  3180   	fcall	_init_uart
   883  0111                     l936:
   884                           
   885                           ;PROJETBTS.c: 96:             Temp();
   886  0111  01F2               	clrf	_i
   887  0112  01F3               	clrf	_i+1
   888  0113                     l942:
   889                           
   890                           ;PROJETBTS.c: 97:         };PROJETBTS.c: 98:         if ((res<860)&&(res>=819))
   891  0113  0872               	movf	_i,w
   892  0114  3E4F               	addlw	(low (_texte3| 0))& (0+255)
   893  0115  0086               	movwf	6
   894  0116  0187               	clrf	7
   895  0117  0801               	movf	1,w
   896  0118  3182  2276  3180   	fcall	_code
   897  011B                     l944:
   898                           
   899                           ;PROJETBTS.c: 99:         {
   900  011B  3001               	movlw	1
   901  011C  07F2               	addwf	_i,f
   902  011D  3000               	movlw	0
   903  011E  3DF3               	addwfc	_i+1,f
   904  011F                     l946:
   905  011F  0873               	movf	_i+1,w
   906  0120  3A80               	xorlw	128
   907  0121  00F8               	movwf	??_main
   908  0122  3080               	movlw	128
   909  0123  0278               	subwf	??_main,w
   910  0124  1D03               	skipz
   911  0125  2928               	goto	u335
   912  0126  300F               	movlw	15
   913  0127  0272               	subwf	_i,w
   914  0128                     u335:
   915  0128  1C03               	skipc
   916  0129  292B               	goto	u331
   917  012A  292C               	goto	u330
   918  012B                     u331:
   919  012B  2913               	goto	l942
   920  012C                     u330:
   921  012C                     l948:
   922                           
   923                           ;PROJETBTS.c: 100:             PORTAbits.RA2=0;
   924  012C  3182  224E  3180   	fcall	_Temp
   925                           
   926                           ;PROJETBTS.c: 101:             PORTAbits.RA4=1;
   927  012F  3182  224E  3180   	fcall	_Temp
   928  0132                     l950:
   929                           
   930                           ;PROJETBTS.c: 103:             for (i=0; i<=14; i++)
   931  0132  0875               	movf	_res+1,w
   932  0133  3A80               	xorlw	128
   933  0134  00F8               	movwf	??_main
   934  0135  3083               	movlw	131
   935  0136  0278               	subwf	??_main,w
   936  0137  1D03               	skipz
   937  0138  293B               	goto	u345
   938  0139  305C               	movlw	92
   939  013A  0274               	subwf	_res,w
   940  013B                     u345:
   941  013B  1803               	skipnc
   942  013C  293E               	goto	u341
   943  013D  293F               	goto	u340
   944  013E                     u341:
   945  013E  2973               	goto	l972
   946  013F                     u340:
   947  013F                     l952:
   948  013F  0875               	movf	_res+1,w
   949  0140  3A80               	xorlw	128
   950  0141  00F8               	movwf	??_main
   951  0142  3083               	movlw	131
   952  0143  0278               	subwf	??_main,w
   953  0144  1D03               	skipz
   954  0145  2948               	goto	u355
   955  0146  3033               	movlw	51
   956  0147  0274               	subwf	_res,w
   957  0148                     u355:
   958  0148  1C03               	skipc
   959  0149  294B               	goto	u351
   960  014A  294C               	goto	u350
   961  014B                     u351:
   962  014B  2973               	goto	l972
   963  014C                     u350:
   964  014C                     l954:
   965                           
   966                           ;PROJETBTS.c: 104:             {;PROJETBTS.c: 105:                 code(texte4[i]);
   967  014C  0020               	movlb	0	; select bank0
   968  014D  110C               	bcf	12,2	;volatile
   969                           
   970                           ;PROJETBTS.c: 106:             }
   971  014E  160C               	bsf	12,4	;volatile
   972  014F                     l956:
   973                           
   974                           ;PROJETBTS.c: 107:             Temp();
   975  014F  3182  226A  3180   	fcall	_init_uart
   976  0152                     l958:
   977                           
   978                           ;PROJETBTS.c: 108:             Temp();
   979  0152  01F2               	clrf	_i
   980  0153  01F3               	clrf	_i+1
   981  0154                     l964:
   982                           
   983                           ;PROJETBTS.c: 109:         };PROJETBTS.c: 110:         if ((res<829)&&(res>=799))
   984  0154  0872               	movf	_i,w
   985  0155  3E40               	addlw	(low (_texte4| 0))& (0+255)
   986  0156  0086               	movwf	6
   987  0157  0187               	clrf	7
   988  0158  0801               	movf	1,w
   989  0159  3182  2276  3180   	fcall	_code
   990  015C                     l966:
   991                           
   992                           ;PROJETBTS.c: 111:         {
   993  015C  3001               	movlw	1
   994  015D  07F2               	addwf	_i,f
   995  015E  3000               	movlw	0
   996  015F  3DF3               	addwfc	_i+1,f
   997  0160                     l968:
   998  0160  0873               	movf	_i+1,w
   999  0161  3A80               	xorlw	128
  1000  0162  00F8               	movwf	??_main
  1001  0163  3080               	movlw	128
  1002  0164  0278               	subwf	??_main,w
  1003  0165  1D03               	skipz
  1004  0166  2969               	goto	u365
  1005  0167  300F               	movlw	15
  1006  0168  0272               	subwf	_i,w
  1007  0169                     u365:
  1008  0169  1C03               	skipc
  1009  016A  296C               	goto	u361
  1010  016B  296D               	goto	u360
  1011  016C                     u361:
  1012  016C  2954               	goto	l964
  1013  016D                     u360:
  1014  016D                     l970:
  1015                           
  1016                           ;PROJETBTS.c: 112:             PORTAbits.RA2=0;
  1017  016D  3182  224E  3180   	fcall	_Temp
  1018                           
  1019                           ;PROJETBTS.c: 113:             PORTAbits.RA4=1;
  1020  0170  3182  224E  3180   	fcall	_Temp
  1021  0173                     l972:
  1022                           
  1023                           ;PROJETBTS.c: 115:             for (i=0; i<=14; i++)
  1024  0173  0875               	movf	_res+1,w
  1025  0174  3A80               	xorlw	128
  1026  0175  00F8               	movwf	??_main
  1027  0176  3083               	movlw	131
  1028  0177  0278               	subwf	??_main,w
  1029  0178  1D03               	skipz
  1030  0179  297C               	goto	u375
  1031  017A  303D               	movlw	61
  1032  017B  0274               	subwf	_res,w
  1033  017C                     u375:
  1034  017C  1803               	skipnc
  1035  017D  297F               	goto	u371
  1036  017E  2980               	goto	u370
  1037  017F                     u371:
  1038  017F  29B4               	goto	l994
  1039  0180                     u370:
  1040  0180                     l974:
  1041  0180  0875               	movf	_res+1,w
  1042  0181  3A80               	xorlw	128
  1043  0182  00F8               	movwf	??_main
  1044  0183  3083               	movlw	131
  1045  0184  0278               	subwf	??_main,w
  1046  0185  1D03               	skipz
  1047  0186  2989               	goto	u385
  1048  0187  301F               	movlw	31
  1049  0188  0274               	subwf	_res,w
  1050  0189                     u385:
  1051  0189  1C03               	skipc
  1052  018A  298C               	goto	u381
  1053  018B  298D               	goto	u380
  1054  018C                     u381:
  1055  018C  29B4               	goto	l994
  1056  018D                     u380:
  1057  018D                     l976:
  1058                           
  1059                           ;PROJETBTS.c: 116:             {;PROJETBTS.c: 117:                 code(texte5[i]);
  1060  018D  0020               	movlb	0	; select bank0
  1061  018E  110C               	bcf	12,2	;volatile
  1062                           
  1063                           ;PROJETBTS.c: 118:             }
  1064  018F  160C               	bsf	12,4	;volatile
  1065  0190                     l978:
  1066                           
  1067                           ;PROJETBTS.c: 119:             Temp();
  1068  0190  3182  226A  3180   	fcall	_init_uart
  1069  0193                     l980:
  1070                           
  1071                           ;PROJETBTS.c: 120:             Temp();
  1072  0193  01F2               	clrf	_i
  1073  0194  01F3               	clrf	_i+1
  1074  0195                     l986:
  1075                           
  1076                           ;PROJETBTS.c: 121:         };PROJETBTS.c: 122:         if (res<799)
  1077  0195  0872               	movf	_i,w
  1078  0196  3E20               	addlw	(low (_texte5| 0))& (0+255)
  1079  0197  0086               	movwf	6
  1080  0198  0187               	clrf	7
  1081  0199  0801               	movf	1,w
  1082  019A  3182  2276  3180   	fcall	_code
  1083  019D                     l988:
  1084                           
  1085                           ;PROJETBTS.c: 123:         {
  1086  019D  3001               	movlw	1
  1087  019E  07F2               	addwf	_i,f
  1088  019F  3000               	movlw	0
  1089  01A0  3DF3               	addwfc	_i+1,f
  1090  01A1                     l990:
  1091  01A1  0873               	movf	_i+1,w
  1092  01A2  3A80               	xorlw	128
  1093  01A3  00F8               	movwf	??_main
  1094  01A4  3080               	movlw	128
  1095  01A5  0278               	subwf	??_main,w
  1096  01A6  1D03               	skipz
  1097  01A7  29AA               	goto	u395
  1098  01A8  300F               	movlw	15
  1099  01A9  0272               	subwf	_i,w
  1100  01AA                     u395:
  1101  01AA  1C03               	skipc
  1102  01AB  29AD               	goto	u391
  1103  01AC  29AE               	goto	u390
  1104  01AD                     u391:
  1105  01AD  2995               	goto	l986
  1106  01AE                     u390:
  1107  01AE                     l992:
  1108                           
  1109                           ;PROJETBTS.c: 124:             PORTAbits.RA2=1;
  1110  01AE  3182  224E  3180   	fcall	_Temp
  1111                           
  1112                           ;PROJETBTS.c: 125:             PORTAbits.RA4=0;
  1113  01B1  3182  224E  3180   	fcall	_Temp
  1114  01B4                     l994:
  1115                           
  1116                           ;PROJETBTS.c: 127:             for (i=0; i<=20; i++)
  1117  01B4  0875               	movf	_res+1,w
  1118  01B5  3A80               	xorlw	128
  1119  01B6  00F8               	movwf	??_main
  1120  01B7  3083               	movlw	131
  1121  01B8  0278               	subwf	??_main,w
  1122  01B9  1D03               	skipz
  1123  01BA  29BD               	goto	u405
  1124  01BB  301F               	movlw	31
  1125  01BC  0274               	subwf	_res,w
  1126  01BD                     u405:
  1127  01BD  1803               	skipnc
  1128  01BE  29C0               	goto	u401
  1129  01BF  29C1               	goto	u400
  1130  01C0                     u401:
  1131  01C0  284D               	goto	l876
  1132  01C1                     u400:
  1133  01C1                     l996:
  1134                           
  1135                           ;PROJETBTS.c: 128:             {;PROJETBTS.c: 129:                 code(texte6[i]);
  1136  01C1  0020               	movlb	0	; select bank0
  1137  01C2  150C               	bsf	12,2	;volatile
  1138                           
  1139                           ;PROJETBTS.c: 130:             }
  1140  01C3  120C               	bcf	12,4	;volatile
  1141  01C4                     l998:
  1142                           
  1143                           ;PROJETBTS.c: 131:             Temp();
  1144  01C4  3182  226A  3180   	fcall	_init_uart
  1145  01C7                     l1000:
  1146                           
  1147                           ;PROJETBTS.c: 132:             Temp();
  1148  01C7  01F2               	clrf	_i
  1149  01C8  01F3               	clrf	_i+1
  1150  01C9                     l1006:
  1151                           
  1152                           ;PROJETBTS.c: 133:         };PROJETBTS.c: 134:     }
  1153  01C9  0872               	movf	_i,w
  1154  01CA  3EA0               	addlw	(low (_texte6| 0))& (0+255)
  1155  01CB  0086               	movwf	6
  1156  01CC  0187               	clrf	7
  1157  01CD  0801               	movf	1,w
  1158  01CE  3182  2276  3180   	fcall	_code
  1159  01D1                     l1008:
  1160                           
  1161                           ;PROJETBTS.c: 135:     }
  1162  01D1  3001               	movlw	1
  1163  01D2  07F2               	addwf	_i,f
  1164  01D3  3000               	movlw	0
  1165  01D4  3DF3               	addwfc	_i+1,f
  1166  01D5                     l1010:
  1167  01D5  0873               	movf	_i+1,w
  1168  01D6  3A80               	xorlw	128
  1169  01D7  00F8               	movwf	??_main
  1170  01D8  3080               	movlw	128
  1171  01D9  0278               	subwf	??_main,w
  1172  01DA  1D03               	skipz
  1173  01DB  29DE               	goto	u415
  1174  01DC  3015               	movlw	21
  1175  01DD  0272               	subwf	_i,w
  1176  01DE                     u415:
  1177  01DE  1C03               	skipc
  1178  01DF  29E1               	goto	u411
  1179  01E0  29E2               	goto	u410
  1180  01E1                     u411:
  1181  01E1  29C9               	goto	l1006
  1182  01E2                     u410:
  1183  01E2                     l1012:
  1184                           
  1185                           ;PROJETBTS.c: 136: }
  1186  01E2  3182  224E  3180   	fcall	_Temp
  1187                           
  1188                           ;PROJETBTS.c: 137: 
  1189  01E5  3182  224E  3180   	fcall	_Temp
  1190  01E8  284D               	goto	l876
  1191  01E9  2816               	ljmp	start
  1192  01EA                     __end_of_main:
  1193                           
  1194                           	psect	text1
  1195  026A                     __ptext1:	
  1196 ;; *************** function _init_uart *****************
  1197 ;; Defined at:
  1198 ;;		line 23 in file "PROJETBTS.c"
  1199 ;; Parameters:    Size  Location     Type
  1200 ;;		None
  1201 ;; Auto vars:     Size  Location     Type
  1202 ;;		None
  1203 ;; Return value:  Size  Location     Type
  1204 ;;                  1    wreg      void 
  1205 ;; Registers used:
  1206 ;;		wreg
  1207 ;; Tracked objects:
  1208 ;;		On entry : 0/0
  1209 ;;		On exit  : 0/0
  1210 ;;		Unchanged: 0/0
  1211 ;; Data sizes:     COMMON   BANK0   BANK1   BANK2
  1212 ;;      Params:         0       0       0       0
  1213 ;;      Locals:         0       0       0       0
  1214 ;;      Temps:          0       0       0       0
  1215 ;;      Totals:         0       0       0       0
  1216 ;;Total ram usage:        0 bytes
  1217 ;; Hardware stack levels used:    1
  1218 ;; Hardware stack levels required when called:    1
  1219 ;; This function calls:
  1220 ;;		Nothing
  1221 ;; This function is called by:
  1222 ;;		_main
  1223 ;; This function uses a non-reentrant model
  1224 ;;
  1225                           
  1226                           
  1227                           ;psect for function _init_uart
  1228  026A                     _init_uart:
  1229  026A                     l842:	
  1230                           ;incstack = 0
  1231                           ; Regs used in _init_uart: [wreg]
  1232                           
  1233                           
  1234                           ;PROJETBTS.c: 25: 
  1235  026A  0021               	movlb	1	; select bank1
  1236  026B  140C               	bsf	12,0	;volatile
  1237  026C                     l844:
  1238                           
  1239                           ;PROJETBTS.c: 26: void code(unsigned char c)
  1240  026C  3020               	movlw	32
  1241  026D  0023               	movlb	3	; select bank3
  1242  026E  009E               	movwf	30	;volatile
  1243                           
  1244                           ;PROJETBTS.c: 27: {
  1245  026F  3090               	movlw	144
  1246  0270  009D               	movwf	29	;volatile
  1247  0271                     l846:
  1248                           
  1249                           ;PROJETBTS.c: 28: while(PIR1bits.TXIF==0);
  1250  0271  3000               	movlw	0
  1251  0272  009C               	movwf	28	;volatile
  1252  0273  300C               	movlw	12
  1253  0274  009B               	movwf	27	;volatile
  1254  0275                     l74:
  1255  0275  0008               	return
  1256  0276                     __end_of_init_uart:
  1257                           
  1258                           	psect	text2
  1259  0276                     __ptext2:	
  1260 ;; *************** function _code *****************
  1261 ;; Defined at:
  1262 ;;		line 31 in file "PROJETBTS.c"
  1263 ;; Parameters:    Size  Location     Type
  1264 ;;  c               1    wreg     unsigned char 
  1265 ;; Auto vars:     Size  Location     Type
  1266 ;;  c               1    0[COMMON] unsigned char 
  1267 ;; Return value:  Size  Location     Type
  1268 ;;                  1    wreg      void 
  1269 ;; Registers used:
  1270 ;;		wreg
  1271 ;; Tracked objects:
  1272 ;;		On entry : 0/0
  1273 ;;		On exit  : 0/0
  1274 ;;		Unchanged: 0/0
  1275 ;; Data sizes:     COMMON   BANK0   BANK1   BANK2
  1276 ;;      Params:         0       0       0       0
  1277 ;;      Locals:         1       0       0       0
  1278 ;;      Temps:          0       0       0       0
  1279 ;;      Totals:         1       0       0       0
  1280 ;;Total ram usage:        1 bytes
  1281 ;; Hardware stack levels used:    1
  1282 ;; Hardware stack levels required when called:    1
  1283 ;; This function calls:
  1284 ;;		Nothing
  1285 ;; This function is called by:
  1286 ;;		_main
  1287 ;; This function uses a non-reentrant model
  1288 ;;
  1289                           
  1290                           
  1291                           ;psect for function _code
  1292  0276                     _code:
  1293                           
  1294                           ;incstack = 0
  1295                           ; Regs used in _code: [wreg]
  1296                           ;code@c stored from wreg
  1297  0276  00F6               	movwf	code@c
  1298  0277                     l848:
  1299  0277                     l77:	
  1300                           ;PROJETBTS.c: 31: void Temp();PROJETBTS.c: 32: {;PROJETBTS.c: 33:     int u=65536;
  1301                           
  1302  0277  0020               	movlb	0	; select bank0
  1303  0278  1E11               	btfss	17,4	;volatile
  1304  0279  2A7B               	goto	u221
  1305  027A  2A7C               	goto	u220
  1306  027B                     u221:
  1307  027B  2A77               	goto	l77
  1308  027C                     u220:
  1309  027C                     l850:
  1310                           
  1311                           ;PROJETBTS.c: 34:     while(u--);
  1312  027C  0876               	movf	code@c,w
  1313  027D  0023               	movlb	3	; select bank3
  1314  027E  009A               	movwf	26	;volatile
  1315  027F                     l80:
  1316  027F  0008               	return
  1317  0280                     __end_of_code:
  1318                           
  1319                           	psect	text3
  1320  024E                     __ptext3:	
  1321 ;; *************** function _Temp *****************
  1322 ;; Defined at:
  1323 ;;		line 36 in file "PROJETBTS.c"
  1324 ;; Parameters:    Size  Location     Type
  1325 ;;		None
  1326 ;; Auto vars:     Size  Location     Type
  1327 ;;  u               2    0[COMMON] int 
  1328 ;; Return value:  Size  Location     Type
  1329 ;;                  1    wreg      void 
  1330 ;; Registers used:
  1331 ;;		wreg, status,2, status,0
  1332 ;; Tracked objects:
  1333 ;;		On entry : 0/0
  1334 ;;		On exit  : 0/0
  1335 ;;		Unchanged: 0/0
  1336 ;; Data sizes:     COMMON   BANK0   BANK1   BANK2
  1337 ;;      Params:         0       0       0       0
  1338 ;;      Locals:         2       0       0       0
  1339 ;;      Temps:          0       0       0       0
  1340 ;;      Totals:         2       0       0       0
  1341 ;;Total ram usage:        2 bytes
  1342 ;; Hardware stack levels used:    1
  1343 ;; Hardware stack levels required when called:    1
  1344 ;; This function calls:
  1345 ;;		Nothing
  1346 ;; This function is called by:
  1347 ;;		_main
  1348 ;; This function uses a non-reentrant model
  1349 ;;
  1350                           
  1351                           
  1352                           ;psect for function _Temp
  1353  024E                     _Temp:
  1354  024E                     l852:	
  1355                           ;incstack = 0
  1356                           ; Regs used in _Temp: [wreg+status,2+status,0]
  1357                           
  1358                           
  1359                           ;PROJETBTS.c: 38: { OSCCON=0b01011011;
  1360  024E  01F6               	clrf	Temp@u
  1361  024F  01F7               	clrf	Temp@u+1
  1362  0250                     l854:	
  1363                           ;PROJETBTS.c: 39:     TRISA=0b00000010;
  1364                           
  1365  0250  30FF               	movlw	255
  1366  0251  07F6               	addwf	Temp@u,f
  1367  0252  30FF               	movlw	255
  1368  0253  3DF7               	addwfc	Temp@u+1,f
  1369  0254  0A76               	incf	Temp@u,w
  1370  0255  1D03               	skipz
  1371  0256  2A5B               	goto	u231
  1372  0257  0A77               	incf	Temp@u+1,w
  1373  0258  1D03               	btfss	3,2
  1374  0259  2A5B               	goto	u231
  1375  025A  2A5C               	goto	u230
  1376  025B                     u231:
  1377  025B  2A50               	goto	l854
  1378  025C                     u230:
  1379  025C                     l86:
  1380  025C  0008               	return
  1381  025D                     __end_of_Temp:
  1382                           
  1383                           	psect	text4
  1384  025D                     __ptext4:	
  1385 ;; *************** function _Init_can *****************
  1386 ;; Defined at:
  1387 ;;		line 14 in file "PROJETBTS.c"
  1388 ;; Parameters:    Size  Location     Type
  1389 ;;		None
  1390 ;; Auto vars:     Size  Location     Type
  1391 ;;		None
  1392 ;; Return value:  Size  Location     Type
  1393 ;;                  1    wreg      void 
  1394 ;; Registers used:
  1395 ;;		wreg, status,2
  1396 ;; Tracked objects:
  1397 ;;		On entry : 0/0
  1398 ;;		On exit  : 0/0
  1399 ;;		Unchanged: 0/0
  1400 ;; Data sizes:     COMMON   BANK0   BANK1   BANK2
  1401 ;;      Params:         0       0       0       0
  1402 ;;      Locals:         0       0       0       0
  1403 ;;      Temps:          0       0       0       0
  1404 ;;      Totals:         0       0       0       0
  1405 ;;Total ram usage:        0 bytes
  1406 ;; Hardware stack levels used:    1
  1407 ;; Hardware stack levels required when called:    1
  1408 ;; This function calls:
  1409 ;;		Nothing
  1410 ;; This function is called by:
  1411 ;;		_main
  1412 ;; This function uses a non-reentrant model
  1413 ;;
  1414                           
  1415                           
  1416                           ;psect for function _Init_can
  1417  025D                     _Init_can:
  1418  025D                     l834:	
  1419                           ;incstack = 0
  1420                           ; Regs used in _Init_can: [wreg+status,2]
  1421                           
  1422                           
  1423                           ;PROJETBTS.c: 16: }
  1424  025D  3005               	movlw	5
  1425  025E  0021               	movlb	1	; select bank1
  1426  025F  009D               	movwf	29	;volatile
  1427                           
  1428                           ;PROJETBTS.c: 17: 
  1429  0260  3080               	movlw	128
  1430  0261  009E               	movwf	30	;volatile
  1431  0262                     l836:
  1432                           
  1433                           ;PROJETBTS.c: 18: void init_uart(void)
  1434  0262  019F               	clrf	31	;volatile
  1435  0263                     l838:
  1436                           
  1437                           ;PROJETBTS.c: 19: {
  1438  0263  3002               	movlw	2
  1439  0264  0023               	movlb	3	; select bank3
  1440  0265  008C               	movwf	12	;volatile
  1441  0266                     l840:
  1442                           
  1443                           ;PROJETBTS.c: 20: TRISAbits.TRISA0 = 1;
  1444  0266  3080               	movlw	128
  1445  0267  0021               	movlb	1	; select bank1
  1446  0268  0095               	movwf	21	;volatile
  1447  0269                     l71:
  1448  0269  0008               	return
  1449  026A                     __end_of_Init_can:
  1450                           
  1451                           	psect	intentry
  1452  0004                     __pintentry:	
  1453 ;; *************** function _isr *****************
  1454 ;; Defined at:
  1455 ;;		line 143 in file "PROJETBTS.c"
  1456 ;; Parameters:    Size  Location     Type
  1457 ;;		None
  1458 ;; Auto vars:     Size  Location     Type
  1459 ;;		None
  1460 ;; Return value:  Size  Location     Type
  1461 ;;                  1    wreg      void 
  1462 ;; Registers used:
  1463 ;;		wreg
  1464 ;; Tracked objects:
  1465 ;;		On entry : 0/0
  1466 ;;		On exit  : 0/0
  1467 ;;		Unchanged: 0/0
  1468 ;; Data sizes:     COMMON   BANK0   BANK1   BANK2
  1469 ;;      Params:         0       0       0       0
  1470 ;;      Locals:         0       0       0       0
  1471 ;;      Temps:          0       0       0       0
  1472 ;;      Totals:         0       0       0       0
  1473 ;;Total ram usage:        0 bytes
  1474 ;; Hardware stack levels used:    1
  1475 ;; This function calls:
  1476 ;;		Nothing
  1477 ;; This function is called by:
  1478 ;;		Interrupt level 1
  1479 ;; This function uses a non-reentrant model
  1480 ;;
  1481                           
  1482  0004                     _isr:
  1483                           
  1484                           ;incstack = 0
  1485  0004  147E               	bsf	int$flags,0	;set compiler interrupt flag (level 1)
  1486                           
  1487                           ; Regs used in _isr: [wreg]
  1488  0005  3180               	pagesel	$
  1489  0006                     i1l828:
  1490                           
  1491                           ;PROJETBTS.c: 144:     }
  1492  0006  0020               	movlb	0	; select bank0
  1493  0007  1C11               	btfss	17,0	;volatile
  1494  0008  280A               	goto	u21_21
  1495  0009  280B               	goto	u21_20
  1496  000A                     u21_21:
  1497  000A  2814               	goto	i1l122
  1498  000B                     u21_20:
  1499  000B                     i1l830:
  1500                           
  1501                           ;PROJETBTS.c: 145: }
  1502  000B  1011               	bcf	17,0	;volatile
  1503  000C                     i1l832:
  1504  000C  300B               	movlw	11
  1505  000D  0097               	movwf	23	;volatile
  1506  000E  30DC               	movlw	220
  1507  000F  0096               	movwf	22	;volatile
  1508  0010  3001               	movlw	1
  1509  0011  07F0               	addwf	_timer0_interrupts,f	;volatile
  1510  0012  3000               	movlw	0
  1511  0013  3DF1               	addwfc	_timer0_interrupts+1,f	;volatile
  1512  0014                     i1l122:
  1513  0014  107E               	bcf	int$flags,0	;clear compiler interrupt flag (level 1)
  1514  0015  0009               	retfie
  1515  0016                     __end_of_isr:
  1516  007E                     btemp	set	126	;btemp
  1517  007E                     int$flags	set	126
  1518  007E                     wtemp0	set	126
  1519                           
  1520                           	psect	config
  1521                           
  1522                           ;Config register CONFIG1 @ 0x8007
  1523                           ;	
  1524                           ;	FOSC = INTOSC, INTOSC oscillator; I/O function on CLKIN pin
  1525                           ;	Watchdog Timer Enable
  1526                           ;	WDTE = OFF, WDT disabled
  1527                           ;	Power-up Timer Enable
  1528                           ;	PWRTE = 0x1, unprogrammed default
  1529                           ;	MCLR Pin Function Select
  1530                           ;	MCLRE = OFF, MCLR/VPP pin function is digital input
  1531                           ;	Flash Program Memory Code Protection
  1532                           ;	CP = 0x1, unprogrammed default
  1533                           ;	Brown-out Reset Enable
  1534                           ;	BOREN = 0x3, unprogrammed default
  1535                           ;	Clock Out Enable
  1536                           ;	CLKOUTEN = 0x1, unprogrammed default
  1537  8007                     	org	32775
  1538  8007  3FA4               	dw	16292

Data Sizes:
    Strings     0
    Constant    0
    Data        100
    BSS         6
    Persistent  32
    Stack       0

Auto Spaces:
    Space          Size  Autos    Used
    COMMON           14      5      11
    BANK0            80      0      77
    BANK1            80      0      23
    BANK2            80      0       0

Pointer List with Targets:

    None.

Critical Paths under _main in COMMON

    _main->_Temp

Critical Paths under _isr in COMMON

    None.

Critical Paths under _main in BANK0

    None.

Critical Paths under _isr in BANK0

    None.

Critical Paths under _main in BANK1

    None.

Critical Paths under _isr in BANK1

    None.

Critical Paths under _main in BANK2

    None.

Critical Paths under _isr in BANK2

    None.

Call Graph Tables:

 ---------------------------------------------------------------------------------
 (Depth) Function   	        Calls       Base Space   Used Autos Params    Refs
 ---------------------------------------------------------------------------------
 (0) _main                                                 3     3      0      45
                                              2 COMMON     3     3      0
                           _Init_can
                               _Temp
                               _code
                          _init_uart
 ---------------------------------------------------------------------------------
 (1) _init_uart                                            0     0      0       0
 ---------------------------------------------------------------------------------
 (1) _code                                                 1     1      0      22
                                              0 COMMON     1     1      0
 ---------------------------------------------------------------------------------
 (1) _Temp                                                 2     2      0      23
                                              0 COMMON     2     2      0
 ---------------------------------------------------------------------------------
 (1) _Init_can                                             0     0      0       0
 ---------------------------------------------------------------------------------
 Estimated maximum stack depth 1
 ---------------------------------------------------------------------------------
 (Depth) Function   	        Calls       Base Space   Used Autos Params    Refs
 ---------------------------------------------------------------------------------
 (2) _isr                                                  0     0      0       0
 ---------------------------------------------------------------------------------
 Estimated maximum stack depth 2
 ---------------------------------------------------------------------------------

 Call Graph Graphs:

 _main (ROOT)
   _Init_can
   _Temp
   _code
   _init_uart

 _isr (ROOT)

 Address spaces:
Name               Size   Autos  Total    Cost      Usage
BIGRAM              F0      0       0       0        0.0%
NULL                 0      0       0       0        0.0%
CODE                 0      0       0       0        0.0%
BITCOMMON            E      0       0       1        0.0%
BITSFR0              0      0       0       1        0.0%
SFR0                 0      0       0       1        0.0%
COMMON               E      5       B       2       78.6%
BITSFR1              0      0       0       2        0.0%
SFR1                 0      0       0       2        0.0%
BITSFR2              0      0       0       3        0.0%
SFR2                 0      0       0       3        0.0%
STACK                0      0       0       3        0.0%
BITSFR3              0      0       0       4        0.0%
SFR3                 0      0       0       4        0.0%
ABS                  0      0      6F       4        0.0%
BITBANK0            50      0       0       5        0.0%
BITSFR4              0      0       0       5        0.0%
SFR4                 0      0       0       5        0.0%
BANK0               50      0      4D       6       96.2%
BITSFR5              0      0       0       6        0.0%
SFR5                 0      0       0       6        0.0%
BITBANK1            50      0       0       7        0.0%
BITSFR6              0      0       0       7        0.0%
SFR6                 0      0       0       7        0.0%
BANK1               50      0      17       8       28.7%
BITSFR7              0      0       0       8        0.0%
SFR7                 0      0       0       8        0.0%
BITBANK2            50      0       0       9        0.0%
BITSFR8              0      0       0       9        0.0%
SFR8                 0      0       0       9        0.0%
BANK2               50      0       0      10        0.0%
BITSFR9              0      0       0      10        0.0%
SFR9                 0      0       0      10        0.0%
BITSFR10             0      0       0      11        0.0%
SFR10                0      0       0      11        0.0%
DATA                 0      0      6F      11        0.0%
BITSFR11             0      0       0      12        0.0%
SFR11                0      0       0      12        0.0%
BITSFR12             0      0       0      13        0.0%
SFR12                0      0       0      13        0.0%
BITSFR13             0      0       0      14        0.0%
SFR13                0      0       0      14        0.0%
BITSFR14             0      0       0      15        0.0%
SFR14                0      0       0      15        0.0%
BITSFR15             0      0       0      16        0.0%
SFR15                0      0       0      16        0.0%
BITSFR16             0      0       0      17        0.0%
SFR16                0      0       0      17        0.0%
BITSFR17             0      0       0      18        0.0%
SFR17                0      0       0      18        0.0%
BITSFR18             0      0       0      19        0.0%
SFR18                0      0       0      19        0.0%
BITSFR19             0      0       0      20        0.0%
SFR19                0      0       0      20        0.0%
BITSFR20             0      0       0      21        0.0%
SFR20                0      0       0      21        0.0%
BITSFR21             0      0       0      22        0.0%
SFR21                0      0       0      22        0.0%
BITSFR22             0      0       0      23        0.0%
SFR22                0      0       0      23        0.0%
BITSFR23             0      0       0      24        0.0%
SFR23                0      0       0      24        0.0%
BITSFR24             0      0       0      25        0.0%
SFR24                0      0       0      25        0.0%
BITSFR25             0      0       0      26        0.0%
SFR25                0      0       0      26        0.0%
BITSFR26             0      0       0      27        0.0%
SFR26                0      0       0      27        0.0%
BITSFR27             0      0       0      28        0.0%
SFR27                0      0       0      28        0.0%
BITSFR28             0      0       0      29        0.0%
SFR28                0      0       0      29        0.0%
BITSFR29             0      0       0      30        0.0%
SFR29                0      0       0      30        0.0%
BITSFR30             0      0       0      31        0.0%
SFR30                0      0       0      31        0.0%
BITSFR31             0      0       0      32        0.0%
SFR31                0      0       0      32        0.0%


Microchip Technology PIC Macro Assembler V2.31 build 20201012212115 
Symbol Table                                                                                   Tue Apr 11 09:29:27 2023

                      _i 0072                       l71 0269                       l80 027F  
                     l74 0275                       l92 0052                       l77 0277  
                     l86 025C                       l99 00F1                      l900 0090  
                    l910 00BC                      l902 0098                      l840 0266  
                    l912 00C9                      l904 009C                      l834 025D  
                    l850 027C                      l842 026A                      l930 00FE  
                    l922 00D1                      l914 00CC                      l906 00A9  
                    l836 0262                      l852 024E                      l844 026C  
                    l932 010B                      l924 00D9                      l916 00CF  
                    l908 00AF                      l860 003F                      l838 0263  
                    l854 0250                      l846 0271                      l942 0113  
                    l934 010E                      l950 0132                      l926 00DD  
                    l870 0049                      l862 0041                      l848 0277  
                    l952 013F                      l944 011B                      l936 0111  
                    l928 00EA                      l880 0056                      l872 004A  
                    l864 0043                      l856 0038                      l970 016D  
                    l954 014C                      l946 011F                      l890 0088  
                    l882 006D                      l874 004B                      l866 0045  
                    l858 003D                      l980 0193                      l964 0154  
                    l956 014F                      l972 0173                      l948 012C  
                    l892 008B                      l884 0070                      l876 004D  
                    l868 0047                      l990 01A1                      l974 0180  
                    l966 015C                      l958 0152                      l894 008E  
                    l886 0079                      l878 0050                      l992 01AE  
                    l976 018D                      l968 0160                      l888 007B  
                    l986 0195                      l978 0190                      l994 01B4  
                    l996 01C1                      l988 019D                      l998 01C4  
                    u220 027C                      u300 00EA                      u221 027B  
                    u301 00E9                      u230 025C                      u310 00FE  
                    u231 025B                      u311 00FD                      u400 01C1  
                    u320 010B                      u240 0056                      u401 01C0  
                    u321 010A                      u305 00E6                      u241 0055  
                    u410 01E2                      u330 012C                      u250 0079  
                    u411 01E1                      u331 012B                      u315 00FA  
                    u251 0078                      u340 013F                      u260 0088  
                    u405 01BD                      u341 013E                      u325 0107  
                    u261 0087                      u350 014C                      u270 00A9  
                    u415 01DE                      u351 014B                      u335 0128  
                    u271 00A8                      u360 016D                      u280 00BC  
                    u361 016C                      u345 013B                      u281 00BB  
                    u265 0084                      u370 0180                      u290 00C9  
                    u371 017F                      u355 0148                      u291 00C8  
                    u275 00A5                      u427 006A                      u380 018D  
                    u381 018C                      u365 0169                      u437 00ED  
                    u285 00B8                      u390 01AE                      u391 01AD  
                    u375 017C                      u295 00C5                      u385 0189  
                    u395 01AA                      _isr 0004                      _res 0074  
                    wreg 0009                     l1000 01C7                     l1010 01D5  
                   l1012 01E2                     l1006 01C9                     l1008 01D1  
                   ?_isr 0076                     _ADGO 04E9                     _Temp 024E  
                   _code 0276                     _main 0038                     fsr0h 0005  
                   fsr1h 0007                     fsr0l 0004                     indf1 0001  
                   fsr1l 0006                     btemp 007E                     start 0016  
                  ??_isr 0076                    ?_Temp 0076                    ?_code 0076  
                  ?_main 0076                    i1l122 0014                    i1l830 000B  
                  i1l832 000C                    i1l828 0006                    _RCSTA 019D  
                  u21_20 000B                    u21_21 000A                    _TMR1H 0017  
                  _TMR1L 0016                    _SPBRG 019B                    _PORTA 000C  
                  _TRISA 008C                    _TXREG 019A                    _TXSTA 019E  
                  Temp@u 0076                    code@c 0076                    status 0003  
                  wtemp0 007E          __initialization 0017             __end_of_Temp 025D  
           __end_of_code 0280             __end_of_main 01EA         __end_of_Init_can 026A  
                 ??_Temp 0076                   ??_code 0076                   ??_main 0078  
                 _ADCON0 009D                   _ADCON1 009E                   _ADCON2 009F  
                 _ADRESH 009C                   _ADRESL 009B                   _ANSELA 018C  
                 _OSCCON 0099                   _texte1 0030                   _texte2 005E  
                 _texte3 004F                   _texte4 0040                   _texte5 0020  
                 _texte6 00A0  __end_of__initialization 0035           __pcstackCOMMON 0076  
           __pidataBANK0 01EA             __pidataBANK1 0237                ?_Init_can 0076  
     __size_of_init_uart 000C               __pmaintext 0038               __pintentry 0004  
      _timer0_interrupts 0070               ??_Init_can 0076                  __ptext1 026A  
                __ptext2 0276                  __ptext3 024E                  __ptext4 025D  
              _T1CONbits 0018             __size_of_isr 0012        __end_of_init_uart 0276  
   end_of_initialization 0035                  init_ram 0280                  initloop 0281  
              _PORTAbits 000C                _TRISAbits 008C      start_initialization 0017  
            __end_of_isr 0016        __size_of_Init_can 000D              __pdataBANK0 0020  
            __pdataBANK1 00A0              __pbssCOMMON 0070                ___latbits 0000  
              _init_uart 026A                 _PIE1bits 0091                 _PIR1bits 0011  
             _ADCON0bits 009D               ?_init_uart 0076                 _Init_can 025D  
          __size_of_Temp 000F            __size_of_code 000A            __size_of_main 01B2  
               int$flags 007E               _INTCONbits 000B              ??_init_uart 0076  
               intlevel1 0000               _OPTION_REG 0095  
